; ModuleID = '32/25.c'
source_filename = "32/25.c"
target datalayout = "e-m:e-p270:32:32-p271:32:32-p272:64:64-i64:64-f80:128-n8:16:32:64-S128"
target triple = "x86_64-pc-linux-gnu"

@.str = private unnamed_addr constant [4 x i8] c"%d\0A\00", align 1

; Function Attrs: noinline nounwind uwtable
define dso_local void @main() #0 {
  %1 = alloca i32, align 4
  %2 = alloca i32, align 4
  %3 = alloca i32, align 4
  %4 = alloca i32, align 4
  %5 = alloca i32, align 4
  %6 = alloca i32, align 4
  %7 = alloca [100 x i8], align 16
  %8 = alloca [100 x i8], align 16
  %9 = alloca [50 x [100 x i8]], align 16
  store i32 0, i32* %6, align 4
  %10 = bitcast [50 x [100 x i8]]* %9 to i8*
  call void @llvm.memset.p0i8.i64(i8* align 16 %10, i8 0, i64 5000, i1 false)
  %11 = call i32 (i8*, ...) @__isoc99_scanf(i8* getelementptr inbounds ([4 x i8], [4 x i8]* @.str, i64 0, i64 0), i32* %1)
  store i32 1, i32* %2, align 4
  br label %12

12:                                               ; preds = %104, %0
  %13 = load i32, i32* %2, align 4
  %14 = load i32, i32* %1, align 4
  %15 = icmp sle i32 %13, %14
  br i1 %15, label %16, label %107

16:                                               ; preds = %12
  %17 = getelementptr inbounds [100 x i8], [100 x i8]* %7, i64 0, i64 0
  %18 = call i32 (i8*, ...) bitcast (i32 (...)* @gets to i32 (i8*, ...)*)(i8* %17)
  %19 = getelementptr inbounds [100 x i8], [100 x i8]* %8, i64 0, i64 0
  %20 = call i32 (i8*, ...) bitcast (i32 (...)* @gets to i32 (i8*, ...)*)(i8* %19)
  %21 = getelementptr inbounds [100 x i8], [100 x i8]* %7, i64 0, i64 0
  %22 = call i64 @strlen(i8* %21) #5
  %23 = trunc i64 %22 to i32
  store i32 %23, i32* %4, align 4
  %24 = getelementptr inbounds [100 x i8], [100 x i8]* %8, i64 0, i64 0
  %25 = call i64 @strlen(i8* %24) #5
  %26 = trunc i64 %25 to i32
  store i32 %26, i32* %5, align 4
  %27 = load i32, i32* %5, align 4
  %28 = sub nsw i32 %27, 1
  store i32 %28, i32* %3, align 4
  br label %29

29:                                               ; preds = %92, %16
  %30 = load i32, i32* %3, align 4
  %31 = icmp sge i32 %30, 0
  br i1 %31, label %32, label %95

32:                                               ; preds = %29
  %33 = load i32, i32* %3, align 4
  %34 = load i32, i32* %4, align 4
  %35 = add nsw i32 %33, %34
  %36 = load i32, i32* %5, align 4
  %37 = sub nsw i32 %35, %36
  %38 = sext i32 %37 to i64
  %39 = getelementptr inbounds [100 x i8], [100 x i8]* %7, i64 0, i64 %38
  %40 = load i8, i8* %39, align 1
  %41 = sext i8 %40 to i32
  %42 = load i32, i32* %3, align 4
  %43 = sext i32 %42 to i64
  %44 = getelementptr inbounds [100 x i8], [100 x i8]* %8, i64 0, i64 %43
  %45 = load i8, i8* %44, align 1
  %46 = sext i8 %45 to i32
  %47 = sub nsw i32 %41, %46
  %48 = add nsw i32 %47, 48
  %49 = trunc i32 %48 to i8
  %50 = load i32, i32* %3, align 4
  %51 = load i32, i32* %4, align 4
  %52 = add nsw i32 %50, %51
  %53 = load i32, i32* %5, align 4
  %54 = sub nsw i32 %52, %53
  %55 = sext i32 %54 to i64
  %56 = getelementptr inbounds [100 x i8], [100 x i8]* %7, i64 0, i64 %55
  store i8 %49, i8* %56, align 1
  %57 = load i32, i32* %3, align 4
  %58 = load i32, i32* %4, align 4
  %59 = add nsw i32 %57, %58
  %60 = load i32, i32* %5, align 4
  %61 = sub nsw i32 %59, %60
  %62 = sext i32 %61 to i64
  %63 = getelementptr inbounds [100 x i8], [100 x i8]* %7, i64 0, i64 %62
  %64 = load i8, i8* %63, align 1
  %65 = sext i8 %64 to i32
  %66 = icmp slt i32 %65, 48
  br i1 %66, label %67, label %91

67:                                               ; preds = %32
  %68 = load i32, i32* %3, align 4
  %69 = load i32, i32* %4, align 4
  %70 = add nsw i32 %68, %69
  %71 = load i32, i32* %5, align 4
  %72 = sub nsw i32 %70, %71
  %73 = sext i32 %72 to i64
  %74 = getelementptr inbounds [100 x i8], [100 x i8]* %7, i64 0, i64 %73
  %75 = load i8, i8* %74, align 1
  %76 = sext i8 %75 to i32
  %77 = add nsw i32 %76, 10
  %78 = trunc i32 %77 to i8
  store i8 %78, i8* %74, align 1
  %79 = load i32, i32* %3, align 4
  %80 = load i32, i32* %4, align 4
  %81 = add nsw i32 %79, %80
  %82 = load i32, i32* %5, align 4
  %83 = sub nsw i32 %81, %82
  %84 = sub nsw i32 %83, 1
  %85 = sext i32 %84 to i64
  %86 = getelementptr inbounds [100 x i8], [100 x i8]* %7, i64 0, i64 %85
  %87 = load i8, i8* %86, align 1
  %88 = sext i8 %87 to i32
  %89 = sub nsw i32 %88, 1
  %90 = trunc i32 %89 to i8
  store i8 %90, i8* %86, align 1
  br label %91

91:                                               ; preds = %67, %32
  br label %92

92:                                               ; preds = %91
  %93 = load i32, i32* %3, align 4
  %94 = add nsw i32 %93, -1
  store i32 %94, i32* %3, align 4
  br label %29

95:                                               ; preds = %29
  %96 = call i32 @getchar()
  %97 = load i32, i32* %6, align 4
  %98 = add nsw i32 %97, 1
  store i32 %98, i32* %6, align 4
  %99 = sext i32 %97 to i64
  %100 = getelementptr inbounds [50 x [100 x i8]], [50 x [100 x i8]]* %9, i64 0, i64 %99
  %101 = getelementptr inbounds [100 x i8], [100 x i8]* %100, i64 0, i64 0
  %102 = getelementptr inbounds [100 x i8], [100 x i8]* %7, i64 0, i64 0
  %103 = call i8* @strcpy(i8* %101, i8* %102) #6
  br label %104

104:                                              ; preds = %95
  %105 = load i32, i32* %2, align 4
  %106 = add nsw i32 %105, 1
  store i32 %106, i32* %2, align 4
  br label %12

107:                                              ; preds = %12
  store i32 0, i32* %3, align 4
  br label %108

108:                                              ; preds = %119, %107
  %109 = load i32, i32* %3, align 4
  %110 = load i32, i32* %1, align 4
  %111 = sub nsw i32 %110, 1
  %112 = icmp sle i32 %109, %111
  br i1 %112, label %113, label %122

113:                                              ; preds = %108
  %114 = load i32, i32* %3, align 4
  %115 = sext i32 %114 to i64
  %116 = getelementptr inbounds [50 x [100 x i8]], [50 x [100 x i8]]* %9, i64 0, i64 %115
  %117 = getelementptr inbounds [100 x i8], [100 x i8]* %116, i64 0, i64 0
  %118 = call i32 @puts(i8* %117)
  br label %119

119:                                              ; preds = %113
  %120 = load i32, i32* %3, align 4
  %121 = add nsw i32 %120, 1
  store i32 %121, i32* %3, align 4
  br label %108

122:                                              ; preds = %108
  ret void
}

; Function Attrs: argmemonly nounwind willreturn
declare void @llvm.memset.p0i8.i64(i8* nocapture writeonly, i8, i64, i1 immarg) #1

declare dso_local i32 @__isoc99_scanf(i8*, ...) #2

declare dso_local i32 @gets(...) #2

; Function Attrs: nounwind readonly
declare dso_local i64 @strlen(i8*) #3

declare dso_local i32 @getchar() #2

; Function Attrs: nounwind
declare dso_local i8* @strcpy(i8*, i8*) #4

declare dso_local i32 @puts(i8*) #2


!llvm.module.flags = !{!0}
!llvm.ident = !{!1}

!0 = !{i32 1, !"wchar_size", i32 4}
!1 = !{!"clang version 10.0.0-4ubuntu1 "}
